target datalayout = "e-m:e-p270:32:32-p271:32:32-p272:64:64-i64:64-i128:128-f80:128-n8:16:32:64-S128"
target triple = "x86_64-pc-linux-gnu"

%union.SourceSpan = type { i64 }
%struct.PlatformTarget = type { ptr, i32, ptr, ptr, i32, i32, i32, i32, i32, i32, i32, [7 x %struct.AlignData], [7 x %struct.AlignData], [7 x %struct.AlignData], i32, i16, %union.anon.90, i8, i8, i8, i8, i8, i8, i8, i8, i8, i8, %struct.AlignData, i32, i32, i32, i32, i32, i32, i32, i32, i32, i32, i32, i32, i32, i32, i32, i32, ptr }
%union.anon.90 = type { %struct.anon.92 }
%struct.anon.92 = type { %struct.X86Features, i32, i32 }
%struct.X86Features = type { [2 x i64], ptr }
%struct.AlignData = type { i32, i32 }
%struct.Expr_ = type { ptr, %union.SourceSpan, i16, %union.anon.29 }
%union.anon.29 = type { %struct.ExprAnySwitch }
%struct.ExprAnySwitch = type { i8, %union.anon.31 }
%union.anon.31 = type { %struct.anon.32 }
%struct.anon.32 = type { ptr, %union.SourceSpan, ptr }
%struct.Attr = type { ptr, ptr, %union.SourceSpan, i16, ptr }
%struct.ExprConst = type { i16, %union.anon.38 }
%union.anon.38 = type { %struct.Int }
%struct.Int = type { %struct.Int128_, i32 }
%struct.Int128_ = type { i64, i64 }
%struct.anon.39 = type { ptr, i32 }
%struct.StringSlice_ = type { ptr, i64 }

@platform_target = external global %struct.PlatformTarget, align 8
@.str.105 = private unnamed_addr constant [50 x i8] c"Too many parts to the Mach-o section description.\00", align 1
@.str.106 = private unnamed_addr constant [51 x i8] c"The segment is missing, did you type it correctly?\00", align 1
@.str.107 = private unnamed_addr constant [76 x i8] c"Mach-o requires 'segment,section' as the format, did you type it correctly?\00", align 1
@.str.108 = private unnamed_addr constant [81 x i8] c"Mach-o requires the section to be at the most 16 characters, can you shorten it?\00", align 1

; Function Attrs: nounwind uwtable
define internal { ptr, i64 } @slice_from_string(ptr noundef %0) #0 {
  %2 = alloca %struct.StringSlice_, align 8
  %3 = alloca ptr, align 8
  store ptr %0, ptr %3, align 8
  %4 = getelementptr inbounds %struct.StringSlice_, ptr %2, i32 0, i32 0
  %5 = load ptr, ptr %3, align 8
  store ptr %5, ptr %4, align 8
  %6 = getelementptr inbounds %struct.StringSlice_, ptr %2, i32 0, i32 1
  %7 = load ptr, ptr %3, align 8
  %8 = call i64 @strlen(ptr noundef %7) #9
  store i64 %8, ptr %6, align 8
  %9 = load { ptr, i64 }, ptr %2, align 8
  ret { ptr, i64 } %9
}

; Function Attrs: nounwind uwtable
define internal zeroext i1 @sema_check_section(ptr noundef %0, ptr noundef %1) #0 {
  %3 = alloca i1, align 1
  %4 = alloca ptr, align 8
  %5 = alloca ptr, align 8
  %6 = alloca ptr, align 8
  %7 = alloca ptr, align 8
  %8 = alloca %struct.StringSlice_, align 8
  %9 = alloca %struct.StringSlice_, align 8
  %10 = alloca %struct.StringSlice_, align 8
  %11 = alloca %struct.StringSlice_, align 8
  %12 = alloca %struct.StringSlice_, align 8
  store ptr %0, ptr %4, align 8
  store ptr %1, ptr %5, align 8
  %13 = load ptr, ptr %5, align 8
  %14 = getelementptr inbounds %struct.Attr, ptr %13, i32 0, i32 4
  %15 = load ptr, ptr %14, align 8
  %16 = getelementptr inbounds ptr, ptr %15, i64 0
  %17 = load ptr, ptr %16, align 8
  store ptr %17, ptr %6, align 8
  %18 = load ptr, ptr %6, align 8
  %19 = getelementptr inbounds %struct.Expr_, ptr %18, i32 0, i32 3
  %20 = getelementptr inbounds %struct.ExprConst, ptr %19, i32 0, i32 1
  %21 = getelementptr inbounds %struct.anon.39, ptr %20, i32 0, i32 0
  %22 = load ptr, ptr %21, align 8
  store ptr %22, ptr %7, align 8
  %23 = load i32, ptr getelementptr inbounds (%struct.PlatformTarget, ptr @platform_target, i32 0, i32 8), align 8
  %24 = icmp ne i32 %23, 4
  br i1 %24, label %25, label %26

25:                                               ; preds = %2
  store i1 true, ptr %3, align 1
  br label %99

26:                                               ; preds = %2
  call void @scratch_buffer_clear()
  %27 = load ptr, ptr %7, align 8
  %28 = call { ptr, i64 } @slice_from_string(ptr noundef %27)
  %29 = getelementptr inbounds { ptr, i64 }, ptr %8, i32 0, i32 0
  %30 = extractvalue { ptr, i64 } %28, 0
  store ptr %30, ptr %29, align 8
  %31 = getelementptr inbounds { ptr, i64 }, ptr %8, i32 0, i32 1
  %32 = extractvalue { ptr, i64 } %28, 1
  store i64 %32, ptr %31, align 8
  %33 = call { ptr, i64 } @slice_next_token(ptr noundef %8, i8 noundef signext 44)
  %34 = getelementptr inbounds { ptr, i64 }, ptr %9, i32 0, i32 0
  %35 = extractvalue { ptr, i64 } %33, 0
  store ptr %35, ptr %34, align 8
  %36 = getelementptr inbounds { ptr, i64 }, ptr %9, i32 0, i32 1
  %37 = extractvalue { ptr, i64 } %33, 1
  store i64 %37, ptr %36, align 8
  %38 = call { ptr, i64 } @slice_next_token(ptr noundef %8, i8 noundef signext 44)
  %39 = getelementptr inbounds { ptr, i64 }, ptr %10, i32 0, i32 0
  %40 = extractvalue { ptr, i64 } %38, 0
  store ptr %40, ptr %39, align 8
  %41 = getelementptr inbounds { ptr, i64 }, ptr %10, i32 0, i32 1
  %42 = extractvalue { ptr, i64 } %38, 1
  store i64 %42, ptr %41, align 8
  %43 = call { ptr, i64 } @slice_next_token(ptr noundef %8, i8 noundef signext 44)
  %44 = getelementptr inbounds { ptr, i64 }, ptr %11, i32 0, i32 0
  %45 = extractvalue { ptr, i64 } %43, 0
  store ptr %45, ptr %44, align 8
  %46 = getelementptr inbounds { ptr, i64 }, ptr %11, i32 0, i32 1
  %47 = extractvalue { ptr, i64 } %43, 1
  store i64 %47, ptr %46, align 8
  %48 = call { ptr, i64 } @slice_next_token(ptr noundef %8, i8 noundef signext 44)
  %49 = getelementptr inbounds { ptr, i64 }, ptr %12, i32 0, i32 0
  %50 = extractvalue { ptr, i64 } %48, 0
  store ptr %50, ptr %49, align 8
  %51 = getelementptr inbounds { ptr, i64 }, ptr %12, i32 0, i32 1
  %52 = extractvalue { ptr, i64 } %48, 1
  store i64 %52, ptr %51, align 8
  %53 = getelementptr inbounds %struct.StringSlice_, ptr %8, i32 0, i32 1
  %54 = load i64, ptr %53, align 8
  %55 = icmp ne i64 %54, 0
  br i1 %55, label %56, label %63

56:                                               ; preds = %26
  br label %57

57:                                               ; preds = %56
  %58 = load ptr, ptr %6, align 8
  %59 = getelementptr inbounds %struct.Expr_, ptr %58, i32 0, i32 1
  %60 = getelementptr inbounds %union.SourceSpan, ptr %59, i32 0, i32 0
  %61 = load i64, ptr %60, align 8
  call void (i64, ptr, ...) @sema_error_at(i64 %61, ptr noundef @.str.105)
  store i1 false, ptr %3, align 1
  br label %99

62:                                               ; No predecessors!
  br label %63

63:                                               ; preds = %62, %26
  call void @slice_trim(ptr noundef %9)
  %64 = getelementptr inbounds %struct.StringSlice_, ptr %9, i32 0, i32 1
  %65 = load i64, ptr %64, align 8
  %66 = icmp ne i64 %65, 0
  br i1 %66, label %74, label %67

67:                                               ; preds = %63
  br label %68

68:                                               ; preds = %67
  %69 = load ptr, ptr %6, align 8
  %70 = getelementptr inbounds %struct.Expr_, ptr %69, i32 0, i32 1
  %71 = getelementptr inbounds %union.SourceSpan, ptr %70, i32 0, i32 0
  %72 = load i64, ptr %71, align 8
  call void (i64, ptr, ...) @sema_error_at(i64 %72, ptr noundef @.str.106)
  store i1 false, ptr %3, align 1
  br label %99

73:                                               ; No predecessors!
  br label %74

74:                                               ; preds = %73, %63
  call void @slice_trim(ptr noundef %10)
  %75 = getelementptr inbounds %struct.StringSlice_, ptr %10, i32 0, i32 1
  %76 = load i64, ptr %75, align 8
  %77 = icmp ne i64 %76, 0
  br i1 %77, label %85, label %78

78:                                               ; preds = %74
  br label %79

79:                                               ; preds = %78
  %80 = load ptr, ptr %6, align 8
  %81 = getelementptr inbounds %struct.Expr_, ptr %80, i32 0, i32 1
  %82 = getelementptr inbounds %union.SourceSpan, ptr %81, i32 0, i32 0
  %83 = load i64, ptr %82, align 8
  call void (i64, ptr, ...) @sema_error_at(i64 %83, ptr noundef @.str.107)
  store i1 false, ptr %3, align 1
  br label %99

84:                                               ; No predecessors!
  br label %85

85:                                               ; preds = %84, %74
  %86 = getelementptr inbounds %struct.StringSlice_, ptr %10, i32 0, i32 1
  %87 = load i64, ptr %86, align 8
  %88 = icmp ugt i64 %87, 16
  br i1 %88, label %89, label %96

89:                                               ; preds = %85
  br label %90

90:                                               ; preds = %89
  %91 = load ptr, ptr %6, align 8
  %92 = getelementptr inbounds %struct.Expr_, ptr %91, i32 0, i32 1
  %93 = getelementptr inbounds %union.SourceSpan, ptr %92, i32 0, i32 0
  %94 = load i64, ptr %93, align 8
  call void (i64, ptr, ...) @sema_error_at(i64 %94, ptr noundef @.str.108)
  store i1 false, ptr %3, align 1
  br label %99

95:                                               ; No predecessors!
  br label %96

96:                                               ; preds = %95, %85
  br label %97

97:                                               ; preds = %96
  br label %98

98:                                               ; preds = %97
  store i1 true, ptr %3, align 1
  br label %99

99:                                               ; preds = %98, %90, %79, %68, %57, %25
  %100 = load i1, ptr %3, align 1
  ret i1 %100
}