; Function Attrs: nounwind uwtable
define internal fastcc noundef zeroext i1 @sema_check_section(ptr nocapture readonly %.32.val.0.val) unnamed_addr #0 {
  %1 = alloca %struct.StringSlice_, align 8
  %2 = alloca %struct.StringSlice_, align 8
  %3 = alloca %struct.StringSlice_, align 8
  %4 = load i32, ptr getelementptr inbounds (%struct.PlatformTarget, ptr @platform_target, i64 0, i32 8), align 8
  %.not = icmp eq i32 %4, 4
  br i1 %.not, label %5, label %29

5:                                                ; preds = %0
  %6 = getelementptr inbounds i8, ptr %.32.val.0.val, i64 32
  %7 = load ptr, ptr %6, align 8
  tail call void @scratch_buffer_clear() #10
  %8 = tail call i64 @strlen(ptr noundef nonnull dereferenceable(1) %7) #12
  store ptr %7, ptr %1, align 8
  %9 = getelementptr inbounds i8, ptr %1, i64 8
  store i64 %8, ptr %9, align 8
  %10 = call { ptr, i64 } @slice_next_token(ptr noundef nonnull %1, i8 noundef signext 44) #10
  %11 = extractvalue { ptr, i64 } %10, 0
  store ptr %11, ptr %2, align 8
  %12 = getelementptr inbounds i8, ptr %2, i64 8
  %13 = extractvalue { ptr, i64 } %10, 1
  store i64 %13, ptr %12, align 8
  %14 = call { ptr, i64 } @slice_next_token(ptr noundef nonnull %1, i8 noundef signext 44) #10
  %15 = extractvalue { ptr, i64 } %14, 0
  store ptr %15, ptr %3, align 8
  %16 = getelementptr inbounds i8, ptr %3, i64 8
  %17 = extractvalue { ptr, i64 } %14, 1
  store i64 %17, ptr %16, align 8
  %18 = call { ptr, i64 } @slice_next_token(ptr noundef nonnull %1, i8 noundef signext 44) #10
  %19 = call { ptr, i64 } @slice_next_token(ptr noundef nonnull %1, i8 noundef signext 44) #10
  %20 = load i64, ptr %9, align 8
  %.not11 = icmp eq i64 %20, 0
  br i1 %.not11, label %21, label %.sink.split

21:                                               ; preds = %5
  call void @slice_trim(ptr noundef nonnull %2) #10
  %22 = load i64, ptr %12, align 8
  %.not12 = icmp eq i64 %22, 0
  br i1 %.not12, label %.sink.split, label %23

23:                                               ; preds = %21
  call void @slice_trim(ptr noundef nonnull %3) #10
  %24 = load i64, ptr %16, align 8
  %.not13 = icmp eq i64 %24, 0
  br i1 %.not13, label %.sink.split, label %25

25:                                               ; preds = %23
  %26 = icmp ugt i64 %24, 16
  br i1 %26, label %.sink.split, label %29

.sink.split:                                      ; preds = %25, %23, %21, %5
  %.str.108.sink = phi ptr [ @.str.105, %5 ], [ @.str.106, %21 ], [ @.str.107, %23 ], [ @.str.108, %25 ]
  %27 = getelementptr inbounds i8, ptr %.32.val.0.val, i64 8
  %28 = load i64, ptr %27, align 8
  call void (i64, ptr, ...) @sema_error_at(i64 %28, ptr noundef nonnull %.str.108.sink) #10
  br label %29

29:                                               ; preds = %.sink.split, %25, %0
  %.0 = phi i1 [ true, %0 ], [ true, %25 ], [ false, %.sink.split ]
  ret i1 %.0
}